; Function Attrs: mustprogress nounwind uwtable
define internal void @"_ZN4absl12lts_2024072222internal_any_invocable22LocalManagerNontrivialIZN9grpc_core12_GLOBAL__N_16GrpcLb17BalancerCallState20ClientLoadReportDoneEPvNS0_6StatusEE3$_0EEvNS1_14FunctionToCallEPNS1_15TypeErasedStateESC_"(i1 noundef zeroext %0, ptr noundef captures(none) %1, ptr noundef writeonly captures(none) %2) #17 personality ptr @__gxx_personality_v0 {
  br i1 %0, label %8, label %.thread

.thread:                                          ; preds = %3
  %4 = load ptr, ptr %1, align 8, !tbaa !679
  store ptr %4, ptr %2, align 8, !tbaa !679
  %5 = getelementptr inbounds nuw i8, ptr %2, i64 8
  %6 = getelementptr inbounds nuw i8, ptr %1, i64 8
  %7 = load i64, ptr %6, align 8, !tbaa !75
  store i64 %7, ptr %5, align 8, !tbaa !75
  store i64 55, ptr %6, align 8, !tbaa !75
  br label %"_ZZN9grpc_core12_GLOBAL__N_16GrpcLb17BalancerCallState20ClientLoadReportDoneEPvN4absl12lts_202407226StatusEEN3$_0D2Ev.exit"

8:                                                ; preds = %3
  %.phi.trans.insert = getelementptr i8, ptr %1, i64 8
  %.val.pre = load i64, ptr %.phi.trans.insert, align 8, !tbaa !75
  %9 = and i64 %.val.pre, 1
  %.not.i.i.i = icmp eq i64 %9, 0
  br i1 %.not.i.i.i, label %10, label %"_ZZN9grpc_core12_GLOBAL__N_16GrpcLb17BalancerCallState20ClientLoadReportDoneEPvN4absl12lts_202407226StatusEEN3$_0D2Ev.exit"

10:                                               ; preds = %8
  %11 = inttoptr i64 %.val.pre to ptr
  invoke void @_ZNK4absl12lts_2024072215status_internal9StatusRep5UnrefEv(ptr noundef nonnull align 8 dereferenceable(48) %11)
          to label %"_ZZN9grpc_core12_GLOBAL__N_16GrpcLb17BalancerCallState20ClientLoadReportDoneEPvN4absl12lts_202407226StatusEEN3$_0D2Ev.exit" unwind label %12

12:                                               ; preds = %10
  %13 = landingpad { ptr, i32 }
          catch ptr null
  %14 = extractvalue { ptr, i32 } %13, 0
  tail call void @__clang_call_terminate(ptr %14) #45
  unreachable

"_ZZN9grpc_core12_GLOBAL__N_16GrpcLb17BalancerCallState20ClientLoadReportDoneEPvN4absl12lts_202407226StatusEEN3$_0D2Ev.exit": ; preds = %.thread, %8, %10
  ret void
}